target datalayout = "e-m:e-p270:32:32-p271:32:32-p272:64:64-i64:64-i128:128-f80:128-n8:16:32:64-S128"
target triple = "x86_64-unknown-linux-gnu"

%"class.google::protobuf::compiler::SourceTreeDescriptorDatabase" = type { %"class.google::protobuf::DescriptorDatabase", ptr, ptr, ptr, i8, %"class.google::protobuf::compiler::SourceLocationTable", %"class.google::protobuf::compiler::SourceTreeDescriptorDatabase::ValidationErrorCollector" }
%"class.google::protobuf::DescriptorDatabase" = type { ptr }
%"class.google::protobuf::compiler::SourceLocationTable" = type { %"class.absl::lts_20230802::flat_hash_map", %"class.absl::lts_20230802::flat_hash_map.7" }
%"class.absl::lts_20230802::flat_hash_map" = type { %"class.absl::lts_20230802::container_internal::raw_hash_map" }
%"class.absl::lts_20230802::container_internal::raw_hash_map" = type { %"class.absl::lts_20230802::container_internal::raw_hash_set" }
%"class.absl::lts_20230802::container_internal::raw_hash_set" = type { %"class.absl::lts_20230802::container_internal::CompressedTuple" }
%"class.absl::lts_20230802::container_internal::CompressedTuple" = type { %"struct.absl::lts_20230802::container_internal::internal_compressed_tuple::CompressedTupleImpl" }
%"struct.absl::lts_20230802::container_internal::internal_compressed_tuple::CompressedTupleImpl" = type { %"struct.absl::lts_20230802::container_internal::internal_compressed_tuple::Storage" }
%"struct.absl::lts_20230802::container_internal::internal_compressed_tuple::Storage" = type { %"class.absl::lts_20230802::container_internal::CommonFields" }
%"class.absl::lts_20230802::container_internal::CommonFields" = type { ptr, ptr, i64, %"class.absl::lts_20230802::container_internal::CompressedTuple.0" }
%"class.absl::lts_20230802::container_internal::CompressedTuple.0" = type { %"struct.absl::lts_20230802::container_internal::internal_compressed_tuple::CompressedTupleImpl.1" }
%"struct.absl::lts_20230802::container_internal::internal_compressed_tuple::CompressedTupleImpl.1" = type { %"struct.absl::lts_20230802::container_internal::internal_compressed_tuple::Storage.2" }
%"struct.absl::lts_20230802::container_internal::internal_compressed_tuple::Storage.2" = type { i64 }
%"class.absl::lts_20230802::flat_hash_map.7" = type { %"class.absl::lts_20230802::container_internal::raw_hash_map.8" }
%"class.absl::lts_20230802::container_internal::raw_hash_map.8" = type { %"class.absl::lts_20230802::container_internal::raw_hash_set.9" }
%"class.absl::lts_20230802::container_internal::raw_hash_set.9" = type { %"class.absl::lts_20230802::container_internal::CompressedTuple.10" }
%"class.absl::lts_20230802::container_internal::CompressedTuple.10" = type { %"struct.absl::lts_20230802::container_internal::internal_compressed_tuple::CompressedTupleImpl.11" }
%"struct.absl::lts_20230802::container_internal::internal_compressed_tuple::CompressedTupleImpl.11" = type { %"struct.absl::lts_20230802::container_internal::internal_compressed_tuple::Storage" }
%"class.google::protobuf::compiler::SourceTreeDescriptorDatabase::ValidationErrorCollector" = type { %"class.google::protobuf::DescriptorPool::ErrorCollector", ptr }
%"class.google::protobuf::DescriptorPool::ErrorCollector" = type { ptr }
%"class.google::protobuf::compiler::Importer" = type { %"class.google::protobuf::compiler::SourceTreeDescriptorDatabase", %"class.google::protobuf::DescriptorPool" }
%"class.google::protobuf::DescriptorPool" = type { ptr, ptr, ptr, ptr, %"class.std::unique_ptr.35", %"class.std::unique_ptr.43", i8, i8, i8, i8, i8, i8, i8, i8, %"class.absl::lts_20230802::flat_hash_map.51", %"class.std::unique_ptr.62" }
%"class.std::unique_ptr.35" = type { %"struct.std::__uniq_ptr_data.36" }
%"struct.std::__uniq_ptr_data.36" = type { %"class.std::__uniq_ptr_impl.37" }
%"class.std::__uniq_ptr_impl.37" = type { %"class.std::tuple.38" }
%"class.std::tuple.38" = type { %"struct.std::_Tuple_impl.39" }
%"struct.std::_Tuple_impl.39" = type { %"struct.std::_Head_base.42" }
%"struct.std::_Head_base.42" = type { ptr }
%"class.std::unique_ptr.43" = type { %"struct.std::__uniq_ptr_data.44" }
%"struct.std::__uniq_ptr_data.44" = type { %"class.std::__uniq_ptr_impl.45" }
%"class.std::__uniq_ptr_impl.45" = type { %"class.std::tuple.46" }
%"class.std::tuple.46" = type { %"struct.std::_Tuple_impl.47" }
%"struct.std::_Tuple_impl.47" = type { %"struct.std::_Head_base.50" }
%"struct.std::_Head_base.50" = type { ptr }
%"class.absl::lts_20230802::flat_hash_map.51" = type { %"class.absl::lts_20230802::container_internal::raw_hash_map.52" }
%"class.absl::lts_20230802::container_internal::raw_hash_map.52" = type { %"class.absl::lts_20230802::container_internal::raw_hash_set.53" }
%"class.absl::lts_20230802::container_internal::raw_hash_set.53" = type { %"class.absl::lts_20230802::container_internal::CompressedTuple.54" }
%"class.absl::lts_20230802::container_internal::CompressedTuple.54" = type { %"struct.absl::lts_20230802::container_internal::internal_compressed_tuple::CompressedTupleImpl.55" }
%"struct.absl::lts_20230802::container_internal::internal_compressed_tuple::CompressedTupleImpl.55" = type { %"struct.absl::lts_20230802::container_internal::internal_compressed_tuple::Storage" }
%"class.std::unique_ptr.62" = type { %"struct.std::__uniq_ptr_data.63" }
%"struct.std::__uniq_ptr_data.63" = type { %"class.std::__uniq_ptr_impl.64" }
%"class.std::__uniq_ptr_impl.64" = type { %"class.std::tuple.65" }
%"class.std::tuple.65" = type { %"struct.std::_Tuple_impl.66" }
%"struct.std::_Tuple_impl.66" = type { %"struct.std::_Head_base.69" }
%"struct.std::_Head_base.69" = type { ptr }

@_ZN6google8protobuf8compiler28SourceTreeDescriptorDatabaseC1EPNS1_10SourceTreeE = unnamed_addr alias void (ptr, ptr), ptr @_ZN6google8protobuf8compiler28SourceTreeDescriptorDatabaseC2EPNS1_10SourceTreeE
@_ZN6google8protobuf8compiler28SourceTreeDescriptorDatabaseD1Ev = unnamed_addr alias void (ptr), ptr @_ZN6google8protobuf8compiler28SourceTreeDescriptorDatabaseD2Ev

; Function Attrs: mustprogress nounwind uwtable
define linkonce_odr hidden void @_ZN6google8protobuf8compiler28SourceTreeDescriptorDatabase14RecordErrorsToEPNS1_23MultiFileErrorCollectorE(ptr noundef nonnull align 8 dereferenceable(120) %this, ptr noundef %error_collector) #4 comdat align 2 {
entry:
  %this.addr = alloca ptr, align 8
  %error_collector.addr = alloca ptr, align 8
  store ptr %this, ptr %this.addr, align 8
  store ptr %error_collector, ptr %error_collector.addr, align 8
  %this1 = load ptr, ptr %this.addr, align 8
  %0 = load ptr, ptr %error_collector.addr, align 8
  %error_collector_ = getelementptr inbounds %"class.google::protobuf::compiler::SourceTreeDescriptorDatabase", ptr %this1, i32 0, i32 3
  store ptr %0, ptr %error_collector_, align 8
  ret void
}

; Function Attrs: mustprogress nounwind uwtable
define linkonce_odr hidden void @_ZN6google8protobuf14DescriptorPool23EnforceWeakDependenciesEb(ptr noundef nonnull align 8 dereferenceable(96) %this, i1 noundef zeroext %enforce) #4 comdat align 2 {
entry:
  %this.addr = alloca ptr, align 8
  %enforce.addr = alloca i8, align 1
  store ptr %this, ptr %this.addr, align 8
  %frombool = zext i1 %enforce to i8
  store i8 %frombool, ptr %enforce.addr, align 1
  %this1 = load ptr, ptr %this.addr, align 8
  %0 = load i8, ptr %enforce.addr, align 1
  %tobool = trunc i8 %0 to i1
  %enforce_weak_ = getelementptr inbounds %"class.google::protobuf::DescriptorPool", ptr %this1, i32 0, i32 9
  %frombool2 = zext i1 %tobool to i8
  store i8 %frombool2, ptr %enforce_weak_, align 1
  ret void
}

; Function Attrs: mustprogress nounwind uwtable
define linkonce_odr hidden noundef ptr @_ZN6google8protobuf8compiler28SourceTreeDescriptorDatabase27GetValidationErrorCollectorEv(ptr noundef nonnull align 8 dereferenceable(120) %this) #4 comdat align 2 {
entry:
  %this.addr = alloca ptr, align 8
  store ptr %this, ptr %this.addr, align 8
  %this1 = load ptr, ptr %this.addr, align 8
  %using_validation_error_collector_ = getelementptr inbounds %"class.google::protobuf::compiler::SourceTreeDescriptorDatabase", ptr %this1, i32 0, i32 4
  store i8 1, ptr %using_validation_error_collector_, align 8
  %validation_error_collector_ = getelementptr inbounds %"class.google::protobuf::compiler::SourceTreeDescriptorDatabase", ptr %this1, i32 0, i32 6
  ret ptr %validation_error_collector_
}

; Function Attrs: mustprogress uwtable
define void @_ZN6google8protobuf8compiler8ImporterC2EPNS1_10SourceTreeEPNS1_23MultiFileErrorCollectorE(ptr noundef nonnull align 8 dereferenceable(216) %this, ptr noundef %source_tree, ptr noundef %error_collector) unnamed_addr #6 align 2 personality ptr @__gxx_personality_v0 {
entry:
  %this.addr = alloca ptr, align 8
  %source_tree.addr = alloca ptr, align 8
  %error_collector.addr = alloca ptr, align 8
  %exn.slot = alloca ptr, align 8
  %ehselector.slot = alloca i32, align 4
  store ptr %this, ptr %this.addr, align 8
  store ptr %source_tree, ptr %source_tree.addr, align 8
  store ptr %error_collector, ptr %error_collector.addr, align 8
  %this1 = load ptr, ptr %this.addr, align 8
  %database_ = getelementptr inbounds %"class.google::protobuf::compiler::Importer", ptr %this1, i32 0, i32 0
  %0 = load ptr, ptr %source_tree.addr, align 8
  call void @_ZN6google8protobuf8compiler28SourceTreeDescriptorDatabaseC1EPNS1_10SourceTreeE(ptr noundef nonnull align 8 dereferenceable(120) %database_, ptr noundef %0)
  %pool_ = getelementptr inbounds %"class.google::protobuf::compiler::Importer", ptr %this1, i32 0, i32 1
  %database_2 = getelementptr inbounds %"class.google::protobuf::compiler::Importer", ptr %this1, i32 0, i32 0
  %database_3 = getelementptr inbounds %"class.google::protobuf::compiler::Importer", ptr %this1, i32 0, i32 0
  %call = invoke noundef ptr @_ZN6google8protobuf8compiler28SourceTreeDescriptorDatabase27GetValidationErrorCollectorEv(ptr noundef nonnull align 8 dereferenceable(120) %database_3)
          to label %invoke.cont unwind label %lpad

invoke.cont:                                      ; preds = %entry
  invoke void @_ZN6google8protobuf14DescriptorPoolC1EPNS0_18DescriptorDatabaseEPNS1_14ErrorCollectorE(ptr noundef nonnull align 8 dereferenceable(96) %pool_, ptr noundef %database_2, ptr noundef %call)
          to label %invoke.cont4 unwind label %lpad

invoke.cont4:                                     ; preds = %invoke.cont
  %pool_5 = getelementptr inbounds %"class.google::protobuf::compiler::Importer", ptr %this1, i32 0, i32 1
  invoke void @_ZN6google8protobuf14DescriptorPool23EnforceWeakDependenciesEb(ptr noundef nonnull align 8 dereferenceable(96) %pool_5, i1 noundef zeroext true)
          to label %invoke.cont7 unwind label %lpad6

invoke.cont7:                                     ; preds = %invoke.cont4
  %database_8 = getelementptr inbounds %"class.google::protobuf::compiler::Importer", ptr %this1, i32 0, i32 0
  %1 = load ptr, ptr %error_collector.addr, align 8
  invoke void @_ZN6google8protobuf8compiler28SourceTreeDescriptorDatabase14RecordErrorsToEPNS1_23MultiFileErrorCollectorE(ptr noundef nonnull align 8 dereferenceable(120) %database_8, ptr noundef %1)
          to label %invoke.cont9 unwind label %lpad6

invoke.cont9:                                     ; preds = %invoke.cont7
  ret void

lpad:                                             ; preds = %invoke.cont, %entry
  %2 = landingpad { ptr, i32 }
          cleanup
  %3 = extractvalue { ptr, i32 } %2, 0
  store ptr %3, ptr %exn.slot, align 8
  %4 = extractvalue { ptr, i32 } %2, 1
  store i32 %4, ptr %ehselector.slot, align 4
  br label %ehcleanup

lpad6:                                            ; preds = %invoke.cont7, %invoke.cont4
  %5 = landingpad { ptr, i32 }
          cleanup
  %6 = extractvalue { ptr, i32 } %5, 0
  store ptr %6, ptr %exn.slot, align 8
  %7 = extractvalue { ptr, i32 } %5, 1
  store i32 %7, ptr %ehselector.slot, align 4
  call void @_ZN6google8protobuf14DescriptorPoolD1Ev(ptr noundef nonnull align 8 dereferenceable(96) %pool_) #3
  br label %ehcleanup

ehcleanup:                                        ; preds = %lpad6, %lpad
  call void @_ZN6google8protobuf8compiler28SourceTreeDescriptorDatabaseD1Ev(ptr noundef nonnull align 8 dereferenceable(120) %database_) #3
  br label %eh.resume

eh.resume:                                        ; preds = %ehcleanup
  %exn = load ptr, ptr %exn.slot, align 8
  %sel = load i32, ptr %ehselector.slot, align 4
  %lpad.val = insertvalue { ptr, i32 } poison, ptr %exn, 0
  %lpad.val10 = insertvalue { ptr, i32 } %lpad.val, i32 %sel, 1
  resume { ptr, i32 } %lpad.val10
}