; Function Attrs: mustprogress uwtable
define void @_ZN6google8protobuf8compiler8ImporterC2EPNS1_10SourceTreeEPNS1_23MultiFileErrorCollectorE(ptr noundef nonnull align 8 dereferenceable(216) %this, ptr noundef %source_tree, ptr noundef %error_collector) unnamed_addr #6 align 2 personality ptr @__gxx_personality_v0 {
entry:
  tail call void @_ZN6google8protobuf8compiler28SourceTreeDescriptorDatabaseC1EPNS1_10SourceTreeE(ptr noundef nonnull align 8 dereferenceable(120) %this, ptr noundef %source_tree)
  %pool_ = getelementptr inbounds i8, ptr %this, i64 120
  %using_validation_error_collector_.i = getelementptr inbounds i8, ptr %this, i64 32
  store i8 1, ptr %using_validation_error_collector_.i, align 8
  %validation_error_collector_.i = getelementptr inbounds i8, ptr %this, i64 104
  invoke void @_ZN6google8protobuf14DescriptorPoolC1EPNS0_18DescriptorDatabaseEPNS1_14ErrorCollectorE(ptr noundef nonnull align 8 dereferenceable(96) %pool_, ptr noundef nonnull %this, ptr noundef nonnull %validation_error_collector_.i)
          to label %invoke.cont4 unwind label %lpad

invoke.cont4:                                     ; preds = %entry
  %enforce_weak_.i = getelementptr inbounds i8, ptr %this, i64 171
  store i8 1, ptr %enforce_weak_.i, align 1
  %error_collector_.i = getelementptr inbounds i8, ptr %this, i64 24
  store ptr %error_collector, ptr %error_collector_.i, align 8
  ret void

lpad:                                             ; preds = %entry
  %0 = landingpad { ptr, i32 }
          cleanup
  tail call void @_ZN6google8protobuf8compiler28SourceTreeDescriptorDatabaseD1Ev(ptr noundef nonnull align 8 dereferenceable(120) %this) #25
  resume { ptr, i32 } %0
}